target datalayout = "e-m:e-p270:32:32-p271:32:32-p272:64:64-i64:64-i128:128-f80:128-n8:16:32:64-S128"
target triple = "x86_64-pc-linux-gnu"

%struct.AVFormatContext = type { ptr, ptr, ptr, ptr, ptr, i32, i32, ptr, i32, ptr, i32, ptr, ptr, i64, i64, i64, i32, i32, i32, i64, i64, ptr, i32, i32, ptr, i32, i32, i32, i32, ptr, i64, i32, i32, %struct.AVIOInterruptCB, i32, i32, i32, i32, i64, i32, i32, i32, i32, i32, i32, i32, i32, i32, i32, i32, i32, i64, i32, i32, i32, i32, i32, ptr, ptr, ptr, ptr, i32, ptr, ptr, ptr, ptr, i32, ptr, ptr, i64, ptr, ptr, ptr, i64 }
%struct.AVIOInterruptCB = type { ptr, ptr }
%struct.CinDemuxContext = type { i32, i32, %struct.CinFileHeader, i64, i64, %struct.CinFrameHeader, i32 }
%struct.CinFileHeader = type { i32, i32, i32, i32, i32, i32, i32 }
%struct.CinFrameHeader = type { i32, i32, i32, i32, i32 }
%struct.AVPacket = type { ptr, i64, i64, ptr, i32, i32, i32, ptr, i32, i64, i64, ptr, ptr, %struct.AVRational }
%struct.AVRational = type { i32, i32 }
%struct.AVIOContext = type { ptr, ptr, i32, ptr, ptr, ptr, ptr, ptr, ptr, i64, i32, i32, i32, i32, i32, i64, ptr, ptr, ptr, ptr, i32, i32, ptr, ptr, ptr, i32, ptr, i64, i64 }

; Function Attrs: nounwind uwtable
define internal i32 @cin_read_frame_header(ptr noundef %0, ptr noundef %1) #0 {
  %3 = alloca i32, align 4
  %4 = alloca ptr, align 8
  %5 = alloca ptr, align 8
  %6 = alloca ptr, align 8
  %7 = alloca i32, align 4
  store ptr %0, ptr %4, align 8, !tbaa !31
  store ptr %1, ptr %5, align 8, !tbaa !36
  call void @llvm.lifetime.start.p0(i64 8, ptr %6) #4
  %8 = load ptr, ptr %4, align 8, !tbaa !31
  %9 = getelementptr inbounds nuw %struct.CinDemuxContext, ptr %8, i32 0, i32 5
  store ptr %9, ptr %6, align 8, !tbaa !76
  %10 = load ptr, ptr %5, align 8, !tbaa !36
  %11 = call i32 @avio_r8(ptr noundef %10)
  %12 = load ptr, ptr %6, align 8, !tbaa !76
  %13 = getelementptr inbounds nuw %struct.CinFrameHeader, ptr %12, i32 0, i32 1
  store i32 %11, ptr %13, align 4, !tbaa !84
  %14 = load ptr, ptr %5, align 8, !tbaa !36
  %15 = call i32 @avio_r8(ptr noundef %14)
  %16 = load ptr, ptr %6, align 8, !tbaa !76
  %17 = getelementptr inbounds nuw %struct.CinFrameHeader, ptr %16, i32 0, i32 0
  store i32 %15, ptr %17, align 4, !tbaa !92
  %18 = load ptr, ptr %5, align 8, !tbaa !36
  %19 = call i32 @avio_rl16(ptr noundef %18)
  %20 = load ptr, ptr %6, align 8, !tbaa !76
  %21 = getelementptr inbounds nuw %struct.CinFrameHeader, ptr %20, i32 0, i32 2
  store i32 %19, ptr %21, align 4, !tbaa !78
  %22 = load ptr, ptr %5, align 8, !tbaa !36
  %23 = call i32 @avio_rl32(ptr noundef %22)
  %24 = load ptr, ptr %6, align 8, !tbaa !76
  %25 = getelementptr inbounds nuw %struct.CinFrameHeader, ptr %24, i32 0, i32 4
  store i32 %23, ptr %25, align 4, !tbaa !79
  %26 = load ptr, ptr %5, align 8, !tbaa !36
  %27 = call i32 @avio_rl32(ptr noundef %26)
  %28 = load ptr, ptr %6, align 8, !tbaa !76
  %29 = getelementptr inbounds nuw %struct.CinFrameHeader, ptr %28, i32 0, i32 3
  store i32 %27, ptr %29, align 4, !tbaa !85
  %30 = load ptr, ptr %5, align 8, !tbaa !36
  %31 = call i32 @avio_feof(ptr noundef %30)
  %32 = icmp ne i32 %31, 0
  br i1 %32, label %38, label %33

33:                                               ; preds = %2
  %34 = load ptr, ptr %5, align 8, !tbaa !36
  %35 = getelementptr inbounds nuw %struct.AVIOContext, ptr %34, i32 0, i32 11
  %36 = load i32, ptr %35, align 4, !tbaa !93
  %37 = icmp ne i32 %36, 0
  br i1 %37, label %38, label %39

38:                                               ; preds = %33, %2
  store i32 -5, ptr %3, align 4
  store i32 1, ptr %7, align 4
  br label %56

39:                                               ; preds = %33
  %40 = load ptr, ptr %5, align 8, !tbaa !36
  %41 = call i32 @avio_rl32(ptr noundef %40)
  %42 = icmp ne i32 %41, -1437226411
  br i1 %42, label %43, label %44

43:                                               ; preds = %39
  store i32 -1094995529, ptr %3, align 4
  store i32 1, ptr %7, align 4
  br label %56

44:                                               ; preds = %39
  %45 = load ptr, ptr %6, align 8, !tbaa !76
  %46 = getelementptr inbounds nuw %struct.CinFrameHeader, ptr %45, i32 0, i32 4
  %47 = load i32, ptr %46, align 4, !tbaa !79
  %48 = icmp slt i32 %47, 0
  br i1 %48, label %54, label %49

49:                                               ; preds = %44
  %50 = load ptr, ptr %6, align 8, !tbaa !76
  %51 = getelementptr inbounds nuw %struct.CinFrameHeader, ptr %50, i32 0, i32 3
  %52 = load i32, ptr %51, align 4, !tbaa !85
  %53 = icmp slt i32 %52, 0
  br i1 %53, label %54, label %55

54:                                               ; preds = %49, %44
  store i32 -1094995529, ptr %3, align 4
  store i32 1, ptr %7, align 4
  br label %56

55:                                               ; preds = %49
  store i32 0, ptr %3, align 4
  store i32 1, ptr %7, align 4
  br label %56

56:                                               ; preds = %55, %54, %43, %38
  call void @llvm.lifetime.end.p0(i64 8, ptr %6) #4
  %57 = load i32, ptr %3, align 4
  ret i32 %57
}

; Function Attrs: nounwind uwtable
define internal i32 @cin_read_packet(ptr noundef %0, ptr noundef %1) #0 {
  %3 = alloca i32, align 4
  %4 = alloca ptr, align 8
  %5 = alloca ptr, align 8
  %6 = alloca ptr, align 8
  %7 = alloca ptr, align 8
  %8 = alloca ptr, align 8
  %9 = alloca i32, align 4
  %10 = alloca i32, align 4
  %11 = alloca i64, align 8
  %12 = alloca i32, align 4
  %13 = alloca i32, align 4
  store ptr %0, ptr %4, align 8, !tbaa !14
  store ptr %1, ptr %5, align 8, !tbaa !74
  call void @llvm.lifetime.start.p0(i64 8, ptr %6) #4
  %14 = load ptr, ptr %4, align 8, !tbaa !14
  %15 = getelementptr inbounds nuw %struct.AVFormatContext, ptr %14, i32 0, i32 3
  %16 = load ptr, ptr %15, align 8, !tbaa !16
  store ptr %16, ptr %6, align 8, !tbaa !31
  call void @llvm.lifetime.start.p0(i64 8, ptr %7) #4
  %17 = load ptr, ptr %4, align 8, !tbaa !14
  %18 = getelementptr inbounds nuw %struct.AVFormatContext, ptr %17, i32 0, i32 4
  %19 = load ptr, ptr %18, align 8, !tbaa !35
  store ptr %19, ptr %7, align 8, !tbaa !36
  call void @llvm.lifetime.start.p0(i64 8, ptr %8) #4
  %20 = load ptr, ptr %6, align 8, !tbaa !31
  %21 = getelementptr inbounds nuw %struct.CinDemuxContext, ptr %20, i32 0, i32 5
  store ptr %21, ptr %8, align 8, !tbaa !76
  call void @llvm.lifetime.start.p0(i64 4, ptr %9) #4
  call void @llvm.lifetime.start.p0(i64 4, ptr %10) #4
  call void @llvm.lifetime.start.p0(i64 8, ptr %11) #4
  call void @llvm.lifetime.start.p0(i64 4, ptr %12) #4
  %22 = load ptr, ptr %6, align 8, !tbaa !31
  %23 = getelementptr inbounds nuw %struct.CinDemuxContext, ptr %22, i32 0, i32 6
  %24 = load i32, ptr %23, align 4, !tbaa !43
  %25 = icmp eq i32 %24, 0
  br i1 %25, label %26, label %155

26:                                               ; preds = %2
  %27 = load ptr, ptr %6, align 8, !tbaa !31
  %28 = load ptr, ptr %7, align 8, !tbaa !36
  %29 = call i32 @cin_read_frame_header(ptr noundef %27, ptr noundef %28)
  store i32 %29, ptr %9, align 4, !tbaa !37
  %30 = load i32, ptr %9, align 4, !tbaa !37
  %31 = icmp ne i32 %30, 0
  br i1 %31, label %32, label %34

32:                                               ; preds = %26
  %33 = load i32, ptr %9, align 4, !tbaa !37
  store i32 %33, ptr %3, align 4
  store i32 1, ptr %13, align 4
  br label %198

34:                                               ; preds = %26
  %35 = load ptr, ptr %8, align 8, !tbaa !76
  %36 = getelementptr inbounds nuw %struct.CinFrameHeader, ptr %35, i32 0, i32 2
  %37 = load i32, ptr %36, align 4, !tbaa !78
  %38 = trunc i32 %37 to i16
  %39 = sext i16 %38 to i32
  %40 = icmp slt i32 %39, 0
  br i1 %40, label %41, label %50

41:                                               ; preds = %34
  %42 = load ptr, ptr %8, align 8, !tbaa !76
  %43 = getelementptr inbounds nuw %struct.CinFrameHeader, ptr %42, i32 0, i32 2
  %44 = load i32, ptr %43, align 4, !tbaa !78
  %45 = trunc i32 %44 to i16
  %46 = sext i16 %45 to i32
  %47 = sub nsw i32 0, %46
  %48 = load ptr, ptr %8, align 8, !tbaa !76
  %49 = getelementptr inbounds nuw %struct.CinFrameHeader, ptr %48, i32 0, i32 2
  store i32 %47, ptr %49, align 4, !tbaa !78
  store i32 1, ptr %10, align 4, !tbaa !37
  br label %51

50:                                               ; preds = %34
  store i32 0, ptr %10, align 4, !tbaa !37
  br label %51

51:                                               ; preds = %50, %41
  %52 = load i32, ptr %10, align 4, !tbaa !37
  %53 = sext i32 %52 to i64
  %54 = add nsw i64 %53, 3
  %55 = load ptr, ptr %8, align 8, !tbaa !76
  %56 = getelementptr inbounds nuw %struct.CinFrameHeader, ptr %55, i32 0, i32 2
  %57 = load i32, ptr %56, align 4, !tbaa !78
  %58 = sext i32 %57 to i64
  %59 = mul nsw i64 %54, %58
  %60 = load ptr, ptr %8, align 8, !tbaa !76
  %61 = getelementptr inbounds nuw %struct.CinFrameHeader, ptr %60, i32 0, i32 4
  %62 = load i32, ptr %61, align 4, !tbaa !79
  %63 = sext i32 %62 to i64
  %64 = add nsw i64 %59, %63
  store i64 %64, ptr %11, align 8, !tbaa !80
  %65 = load i64, ptr %11, align 8, !tbaa !80
  %66 = add nsw i64 %65, 4
  %67 = icmp sgt i64 %66, 2147483647
  br i1 %67, label %68, label %69

68:                                               ; preds = %51
  store i32 -1094995529, ptr %3, align 4
  store i32 1, ptr %13, align 4
  br label %198

69:                                               ; preds = %51
  %70 = load ptr, ptr %7, align 8, !tbaa !36
  %71 = load i64, ptr %11, align 8, !tbaa !80
  %72 = trunc i64 %71 to i32
  %73 = call i32 @ffio_limit(ptr noundef %70, i32 noundef %72)
  %74 = sext i32 %73 to i64
  store i64 %74, ptr %11, align 8, !tbaa !80
  %75 = load ptr, ptr %5, align 8, !tbaa !74
  %76 = load i64, ptr %11, align 8, !tbaa !80
  %77 = add nsw i64 4, %76
  %78 = trunc i64 %77 to i32
  %79 = call i32 @av_new_packet(ptr noundef %75, i32 noundef %78)
  store i32 %79, ptr %12, align 4, !tbaa !37
  %80 = load i32, ptr %12, align 4, !tbaa !37
  %81 = icmp slt i32 %80, 0
  br i1 %81, label %82, label %84

82:                                               ; preds = %69
  %83 = load i32, ptr %12, align 4, !tbaa !37
  store i32 %83, ptr %3, align 4
  store i32 1, ptr %13, align 4
  br label %198

84:                                               ; preds = %69
  %85 = load ptr, ptr %6, align 8, !tbaa !31
  %86 = getelementptr inbounds nuw %struct.CinDemuxContext, ptr %85, i32 0, i32 1
  %87 = load i32, ptr %86, align 4, !tbaa !53
  %88 = load ptr, ptr %5, align 8, !tbaa !74
  %89 = getelementptr inbounds nuw %struct.AVPacket, ptr %88, i32 0, i32 5
  store i32 %87, ptr %89, align 4, !tbaa !81
  %90 = load ptr, ptr %6, align 8, !tbaa !31
  %91 = getelementptr inbounds nuw %struct.CinDemuxContext, ptr %90, i32 0, i32 4
  %92 = load i64, ptr %91, align 8, !tbaa !38
  %93 = add nsw i64 %92, 1
  store i64 %93, ptr %91, align 8, !tbaa !38
  %94 = load ptr, ptr %5, align 8, !tbaa !74
  %95 = getelementptr inbounds nuw %struct.AVPacket, ptr %94, i32 0, i32 1
  store i64 %92, ptr %95, align 8, !tbaa !82
  %96 = load i32, ptr %10, align 4, !tbaa !37
  %97 = trunc i32 %96 to i8
  %98 = load ptr, ptr %5, align 8, !tbaa !74
  %99 = getelementptr inbounds nuw %struct.AVPacket, ptr %98, i32 0, i32 3
  %100 = load ptr, ptr %99, align 8, !tbaa !83
  %101 = getelementptr inbounds i8, ptr %100, i64 0
  store i8 %97, ptr %101, align 1, !tbaa !13
  %102 = load ptr, ptr %8, align 8, !tbaa !76
  %103 = getelementptr inbounds nuw %struct.CinFrameHeader, ptr %102, i32 0, i32 2
  %104 = load i32, ptr %103, align 4, !tbaa !78
  %105 = and i32 %104, 255
  %106 = trunc i32 %105 to i8
  %107 = load ptr, ptr %5, align 8, !tbaa !74
  %108 = getelementptr inbounds nuw %struct.AVPacket, ptr %107, i32 0, i32 3
  %109 = load ptr, ptr %108, align 8, !tbaa !83
  %110 = getelementptr inbounds i8, ptr %109, i64 1
  store i8 %106, ptr %110, align 1, !tbaa !13
  %111 = load ptr, ptr %8, align 8, !tbaa !76
  %112 = getelementptr inbounds nuw %struct.CinFrameHeader, ptr %111, i32 0, i32 2
  %113 = load i32, ptr %112, align 4, !tbaa !78
  %114 = ashr i32 %113, 8
  %115 = trunc i32 %114 to i8
  %116 = load ptr, ptr %5, align 8, !tbaa !74
  %117 = getelementptr inbounds nuw %struct.AVPacket, ptr %116, i32 0, i32 3
  %118 = load ptr, ptr %117, align 8, !tbaa !83
  %119 = getelementptr inbounds i8, ptr %118, i64 2
  store i8 %115, ptr %119, align 1, !tbaa !13
  %120 = load ptr, ptr %8, align 8, !tbaa !76
  %121 = getelementptr inbounds nuw %struct.CinFrameHeader, ptr %120, i32 0, i32 1
  %122 = load i32, ptr %121, align 4, !tbaa !84
  %123 = trunc i32 %122 to i8
  %124 = load ptr, ptr %5, align 8, !tbaa !74
  %125 = getelementptr inbounds nuw %struct.AVPacket, ptr %124, i32 0, i32 3
  %126 = load ptr, ptr %125, align 8, !tbaa !83
  %127 = getelementptr inbounds i8, ptr %126, i64 3
  store i8 %123, ptr %127, align 1, !tbaa !13
  %128 = load ptr, ptr %7, align 8, !tbaa !36
  %129 = load ptr, ptr %5, align 8, !tbaa !74
  %130 = getelementptr inbounds nuw %struct.AVPacket, ptr %129, i32 0, i32 3
  %131 = load ptr, ptr %130, align 8, !tbaa !83
  %132 = getelementptr inbounds i8, ptr %131, i64 4
  %133 = load i64, ptr %11, align 8, !tbaa !80
  %134 = trunc i64 %133 to i32
  %135 = call i32 @avio_read(ptr noundef %128, ptr noundef %132, i32 noundef %134)
  store i32 %135, ptr %12, align 4, !tbaa !37
  %136 = load i32, ptr %12, align 4, !tbaa !37
  %137 = icmp slt i32 %136, 0
  br i1 %137, label %138, label %140

138:                                              ; preds = %84
  %139 = load i32, ptr %12, align 4, !tbaa !37
  store i32 %139, ptr %3, align 4
  store i32 1, ptr %13, align 4
  br label %198

140:                                              ; preds = %84
  %141 = load i32, ptr %12, align 4, !tbaa !37
  %142 = sext i32 %141 to i64
  %143 = load i64, ptr %11, align 8, !tbaa !80
  %144 = icmp slt i64 %142, %143
  br i1 %144, label %145, label %149

145:                                              ; preds = %140
  %146 = load ptr, ptr %5, align 8, !tbaa !74
  %147 = load i32, ptr %12, align 4, !tbaa !37
  %148 = add nsw i32 4, %147
  call void @av_shrink_packet(ptr noundef %146, i32 noundef %148)
  br label %149

149:                                              ; preds = %145, %140
  %150 = load ptr, ptr %8, align 8, !tbaa !76
  %151 = getelementptr inbounds nuw %struct.CinFrameHeader, ptr %150, i32 0, i32 3
  %152 = load i32, ptr %151, align 4, !tbaa !85
  %153 = load ptr, ptr %6, align 8, !tbaa !31
  %154 = getelementptr inbounds nuw %struct.CinDemuxContext, ptr %153, i32 0, i32 6
  store i32 %152, ptr %154, align 4, !tbaa !43
  store i32 0, ptr %3, align 4
  store i32 1, ptr %13, align 4
  br label %198

155:                                              ; preds = %2
  %156 = load ptr, ptr %7, align 8, !tbaa !36
  %157 = load ptr, ptr %5, align 8, !tbaa !74
  %158 = load ptr, ptr %6, align 8, !tbaa !31
  %159 = getelementptr inbounds nuw %struct.CinDemuxContext, ptr %158, i32 0, i32 6
  %160 = load i32, ptr %159, align 4, !tbaa !43
  %161 = call i32 @av_get_packet(ptr noundef %156, ptr noundef %157, i32 noundef %160)
  store i32 %161, ptr %12, align 4, !tbaa !37
  %162 = load i32, ptr %12, align 4, !tbaa !37
  %163 = icmp slt i32 %162, 0
  br i1 %163, label %164, label %166

164:                                              ; preds = %155
  %165 = load i32, ptr %12, align 4, !tbaa !37
  store i32 %165, ptr %3, align 4
  store i32 1, ptr %13, align 4
  br label %198

166:                                              ; preds = %155
  %167 = load ptr, ptr %6, align 8, !tbaa !31
  %168 = getelementptr inbounds nuw %struct.CinDemuxContext, ptr %167, i32 0, i32 0
  %169 = load i32, ptr %168, align 8, !tbaa !64
  %170 = load ptr, ptr %5, align 8, !tbaa !74
  %171 = getelementptr inbounds nuw %struct.AVPacket, ptr %170, i32 0, i32 5
  store i32 %169, ptr %171, align 4, !tbaa !81
  %172 = load ptr, ptr %6, align 8, !tbaa !31
  %173 = getelementptr inbounds nuw %struct.CinDemuxContext, ptr %172, i32 0, i32 3
  %174 = load i64, ptr %173, align 8, !tbaa !42
  %175 = load ptr, ptr %5, align 8, !tbaa !74
  %176 = getelementptr inbounds nuw %struct.AVPacket, ptr %175, i32 0, i32 1
  store i64 %174, ptr %176, align 8, !tbaa !82
  %177 = load ptr, ptr %6, align 8, !tbaa !31
  %178 = getelementptr inbounds nuw %struct.CinDemuxContext, ptr %177, i32 0, i32 6
  %179 = load i32, ptr %178, align 4, !tbaa !43
  %180 = load ptr, ptr %5, align 8, !tbaa !74
  %181 = getelementptr inbounds nuw %struct.AVPacket, ptr %180, i32 0, i32 1
  %182 = load i64, ptr %181, align 8, !tbaa !82
  %183 = icmp eq i64 %182, 0
  %184 = zext i1 %183 to i32
  %185 = sub nsw i32 %179, %184
  %186 = sext i32 %185 to i64
  %187 = load ptr, ptr %5, align 8, !tbaa !74
  %188 = getelementptr inbounds nuw %struct.AVPacket, ptr %187, i32 0, i32 9
  store i64 %186, ptr %188, align 8, !tbaa !86
  %189 = load ptr, ptr %5, align 8, !tbaa !74
  %190 = getelementptr inbounds nuw %struct.AVPacket, ptr %189, i32 0, i32 9
  %191 = load i64, ptr %190, align 8, !tbaa !86
  %192 = load ptr, ptr %6, align 8, !tbaa !31
  %193 = getelementptr inbounds nuw %struct.CinDemuxContext, ptr %192, i32 0, i32 3
  %194 = load i64, ptr %193, align 8, !tbaa !42
  %195 = add nsw i64 %194, %191
  store i64 %195, ptr %193, align 8, !tbaa !42
  %196 = load ptr, ptr %6, align 8, !tbaa !31
  %197 = getelementptr inbounds nuw %struct.CinDemuxContext, ptr %196, i32 0, i32 6
  store i32 0, ptr %197, align 4, !tbaa !43
  store i32 0, ptr %3, align 4
  store i32 1, ptr %13, align 4
  br label %198

198:                                              ; preds = %166, %164, %149, %138, %82, %68, %32
  call void @llvm.lifetime.end.p0(i64 4, ptr %12) #4
  call void @llvm.lifetime.end.p0(i64 8, ptr %11) #4
  call void @llvm.lifetime.end.p0(i64 4, ptr %10) #4
  call void @llvm.lifetime.end.p0(i64 4, ptr %9) #4
  call void @llvm.lifetime.end.p0(i64 8, ptr %8) #4
  call void @llvm.lifetime.end.p0(i64 8, ptr %7) #4
  call void @llvm.lifetime.end.p0(i64 8, ptr %6) #4
  %199 = load i32, ptr %3, align 4
  ret i32 %199
}