; Function Attrs: nounwind uwtable
define internal range(i32 -2147483648, 1) i32 @cin_read_packet(ptr noundef readonly captures(none) %0, ptr noundef %1) #1 {
  %3 = getelementptr inbounds nuw i8, ptr %0, i64 24
  %4 = load ptr, ptr %3, align 8, !tbaa !12
  %5 = getelementptr inbounds nuw i8, ptr %0, i64 32
  %6 = load ptr, ptr %5, align 8, !tbaa !27
  %7 = getelementptr inbounds nuw i8, ptr %4, i64 76
  %8 = load i32, ptr %7, align 4, !tbaa !36
  %9 = icmp eq i32 %8, 0
  br i1 %9, label %10, label %86

10:                                               ; preds = %2
  %11 = getelementptr inbounds nuw i8, ptr %4, i64 56
  %12 = tail call i32 @avio_r8(ptr noundef %6) #4
  %13 = getelementptr inbounds nuw i8, ptr %4, i64 60
  store i32 %12, ptr %13, align 4, !tbaa !62
  %14 = tail call i32 @avio_r8(ptr noundef %6) #4
  store i32 %14, ptr %11, align 4, !tbaa !63
  %15 = tail call i32 @avio_rl16(ptr noundef %6) #4
  %16 = getelementptr inbounds nuw i8, ptr %4, i64 64
  store i32 %15, ptr %16, align 4, !tbaa !64
  %17 = tail call i32 @avio_rl32(ptr noundef %6) #4
  %18 = getelementptr inbounds nuw i8, ptr %4, i64 72
  store i32 %17, ptr %18, align 4, !tbaa !65
  %19 = tail call i32 @avio_rl32(ptr noundef %6) #4
  %20 = getelementptr inbounds nuw i8, ptr %4, i64 68
  store i32 %19, ptr %20, align 4, !tbaa !66
  %21 = tail call i32 @avio_feof(ptr noundef %6) #4
  %.not.i = icmp eq i32 %21, 0
  br i1 %.not.i, label %22, label %cin_read_frame_header.exit.thread

22:                                               ; preds = %10
  %23 = getelementptr inbounds nuw i8, ptr %6, i64 84
  %24 = load i32, ptr %23, align 4, !tbaa !67
  %.not16.i = icmp eq i32 %24, 0
  br i1 %.not16.i, label %25, label %cin_read_frame_header.exit.thread

25:                                               ; preds = %22
  %26 = tail call i32 @avio_rl32(ptr noundef nonnull %6) #4
  %.not17.i = icmp eq i32 %26, -1437226411
  br i1 %.not17.i, label %27, label %cin_read_frame_header.exit.thread

27:                                               ; preds = %25
  %28 = load i32, ptr %18, align 4, !tbaa !65
  %29 = icmp slt i32 %28, 0
  br i1 %29, label %cin_read_frame_header.exit.thread, label %30

30:                                               ; preds = %27
  %31 = load i32, ptr %20, align 4, !tbaa !66
  %32 = icmp slt i32 %31, 0
  br i1 %32, label %cin_read_frame_header.exit.thread, label %cin_read_frame_header.exit

cin_read_frame_header.exit:                       ; preds = %30
  %33 = load i32, ptr %16, align 4, !tbaa !64
  %sext = shl i32 %33, 16
  %34 = ashr exact i32 %sext, 16
  %35 = icmp slt i32 %34, 0
  br i1 %35, label %36, label %38

36:                                               ; preds = %cin_read_frame_header.exit
  %37 = sub nsw i32 0, %34
  store i32 %37, ptr %16, align 4, !tbaa !64
  br label %38

38:                                               ; preds = %cin_read_frame_header.exit, %36
  %39 = phi i32 [ %37, %36 ], [ %33, %cin_read_frame_header.exit ]
  %.0 = phi i32 [ 1, %36 ], [ 0, %cin_read_frame_header.exit ]
  %narrow = add nuw nsw i32 %.0, 3
  %40 = zext nneg i32 %narrow to i64
  %41 = sext i32 %39 to i64
  %42 = mul nsw i64 %40, %41
  %43 = zext nneg i32 %28 to i64
  %44 = add nsw i64 %42, %43
  %45 = icmp sgt i64 %44, 2147483643
  br i1 %45, label %cin_read_frame_header.exit.thread, label %46

46:                                               ; preds = %38
  %47 = trunc i64 %44 to i32
  %48 = tail call i32 @ffio_limit(ptr noundef nonnull %6, i32 noundef %47) #4
  %49 = add i32 %48, 4
  %50 = tail call i32 @av_new_packet(ptr noundef %1, i32 noundef %49) #4
  %51 = icmp slt i32 %50, 0
  br i1 %51, label %cin_read_frame_header.exit.thread, label %52

52:                                               ; preds = %46
  %53 = getelementptr inbounds nuw i8, ptr %4, i64 4
  %54 = load i32, ptr %53, align 4, !tbaa !46
  %55 = getelementptr inbounds nuw i8, ptr %1, i64 36
  store i32 %54, ptr %55, align 4, !tbaa !69
  %56 = getelementptr inbounds nuw i8, ptr %4, i64 48
  %57 = load i64, ptr %56, align 8, !tbaa !70
  %58 = add nsw i64 %57, 1
  store i64 %58, ptr %56, align 8, !tbaa !70
  %59 = getelementptr inbounds nuw i8, ptr %1, i64 8
  store i64 %57, ptr %59, align 8, !tbaa !71
  %60 = trunc nuw nsw i32 %.0 to i8
  %61 = getelementptr inbounds nuw i8, ptr %1, i64 24
  %62 = load ptr, ptr %61, align 8, !tbaa !72
  store i8 %60, ptr %62, align 1, !tbaa !11
  %63 = load i32, ptr %16, align 4, !tbaa !64
  %64 = trunc i32 %63 to i8
  %65 = load ptr, ptr %61, align 8, !tbaa !72
  %66 = getelementptr inbounds nuw i8, ptr %65, i64 1
  store i8 %64, ptr %66, align 1, !tbaa !11
  %67 = load i32, ptr %16, align 4, !tbaa !64
  %68 = lshr i32 %67, 8
  %69 = trunc i32 %68 to i8
  %70 = load ptr, ptr %61, align 8, !tbaa !72
  %71 = getelementptr inbounds nuw i8, ptr %70, i64 2
  store i8 %69, ptr %71, align 1, !tbaa !11
  %72 = load i32, ptr %13, align 4, !tbaa !62
  %73 = trunc i32 %72 to i8
  %74 = load ptr, ptr %61, align 8, !tbaa !72
  %75 = getelementptr inbounds nuw i8, ptr %74, i64 3
  store i8 %73, ptr %75, align 1, !tbaa !11
  %76 = load ptr, ptr %61, align 8, !tbaa !72
  %77 = getelementptr inbounds nuw i8, ptr %76, i64 4
  %78 = tail call i32 @avio_read(ptr noundef nonnull %6, ptr noundef nonnull %77, i32 noundef %48) #4
  %79 = icmp slt i32 %78, 0
  br i1 %79, label %cin_read_frame_header.exit.thread, label %80

80:                                               ; preds = %52
  %81 = icmp slt i32 %78, %48
  br i1 %81, label %82, label %84

82:                                               ; preds = %80
  %83 = add nuw nsw i32 %78, 4
  tail call void @av_shrink_packet(ptr noundef nonnull %1, i32 noundef %83) #4
  br label %84

84:                                               ; preds = %82, %80
  %85 = load i32, ptr %20, align 4, !tbaa !66
  br label %cin_read_frame_header.exit.thread.sink.split

86:                                               ; preds = %2
  %87 = tail call i32 @av_get_packet(ptr noundef %6, ptr noundef %1, i32 noundef %8) #4
  %88 = icmp slt i32 %87, 0
  br i1 %88, label %cin_read_frame_header.exit.thread, label %89

89:                                               ; preds = %86
  %90 = load i32, ptr %4, align 8, !tbaa !55
  %91 = getelementptr inbounds nuw i8, ptr %1, i64 36
  store i32 %90, ptr %91, align 4, !tbaa !69
  %92 = getelementptr inbounds nuw i8, ptr %4, i64 40
  %93 = load i64, ptr %92, align 8, !tbaa !73
  %94 = getelementptr inbounds nuw i8, ptr %1, i64 8
  store i64 %93, ptr %94, align 8, !tbaa !71
  %95 = load i32, ptr %7, align 4, !tbaa !36
  %96 = icmp eq i64 %93, 0
  %.neg = sext i1 %96 to i32
  %97 = add i32 %95, %.neg
  %98 = sext i32 %97 to i64
  %99 = getelementptr inbounds nuw i8, ptr %1, i64 64
  store i64 %98, ptr %99, align 8, !tbaa !74
  %100 = add nsw i64 %93, %98
  store i64 %100, ptr %92, align 8, !tbaa !73
  br label %cin_read_frame_header.exit.thread.sink.split

cin_read_frame_header.exit.thread.sink.split:     ; preds = %84, %89
  %.sink = phi i32 [ 0, %89 ], [ %85, %84 ]
  store i32 %.sink, ptr %7, align 4, !tbaa !36
  br label %cin_read_frame_header.exit.thread

cin_read_frame_header.exit.thread:                ; preds = %cin_read_frame_header.exit.thread.sink.split, %30, %27, %25, %10, %22, %86, %52, %46, %38
  %.059 = phi i32 [ -1094995529, %38 ], [ %50, %46 ], [ %78, %52 ], [ %87, %86 ], [ -1094995529, %27 ], [ -1094995529, %25 ], [ -5, %10 ], [ -5, %22 ], [ -1094995529, %30 ], [ 0, %cin_read_frame_header.exit.thread.sink.split ]
  ret i32 %.059
}